(lp0
(lp1
a(lp2
(dp3
S'CLIENT_MAC'
p4
S''
p5
sS'CLIENT_IP'
p6
S'192.168.1.2'
p7
sS'SW_PORT'
p8
I1
sS'STAT'
p9
I0
sS'SW_IP'
p10
S'192.168.1.101'
p11
sa(dp12
g4
g5
sg6
S'192.168.2.2'
p13
sg8
I2
sg9
I0
sg10
S'192.168.2.101'
p14
saa(lp15
(dp16
g4
g5
sg6
S'192.168.2.2'
p17
sg8
I2
sg9
I0
sg10
S'192.168.2.102'
p18
sa(dp19
g4
g5
sg6
S'192.168.3.2'
p20
sg8
I3
sg9
I0
sg10
S'192.168.3.102'
p21
saa(lp22
(dp23
g4
g5
sg6
S'192.168.3.2'
p24
sg8
I3
sg9
I0
sg10
S'192.168.3.103'
p25
sa(dp26
g4
g5
sg6
S'192.168.1.2'
p27
sg8
I1
sg9
I0
sg10
S'192.168.1.103'
p28
saa.