(dp0
S'63909b1c004645f5ab6d25005d381ed1'
p1
(dp2
S'ENTRY'
p3
(lp4
(dp5
S'CLIENT_MAC'
p6
S'00:0c:29:36:52:5e'
p7
sS'CLIENT_IP'
p8
S'192.168.1.2'
p9
sS'SW_PORT'
p10
I1
sS'ARP_UUID'
p11
S'103f9bee7a0c4341b9ffa9b33dcfc1c4'
p12
sS'SW_IP'
p13
S'192.168.1.102'
p14
sa(dp15
g6
S'00:0c:29:88:eb:b6'
p16
sg8
S'192.168.2.2'
p17
sg10
I2
sg11
S'b237ee113d634ea6bc62a22288c73679'
p18
sg13
S'192.168.2.101'
p19
sasS'FLAG'
p20
I2
ss.